; ModuleID = '10/2111.c'
source_filename = "10/2111.c"
target datalayout = "e-m:e-p270:32:32-p271:32:32-p272:64:64-i64:64-f80:128-n8:16:32:64-S128"
target triple = "x86_64-pc-linux-gnu"

@.str = private unnamed_addr constant [3 x i8] c"%d\00", align 1

; Function Attrs: noinline nounwind uwtable
define dso_local i32 @main() #0 {
  %1 = alloca i32, align 4
  %2 = alloca i32, align 4
  %3 = alloca [25 x i32], align 16
  %4 = alloca [25 x i32], align 16
  %5 = alloca i32, align 4
  %6 = alloca i32, align 4
  %7 = alloca i32, align 4
  %8 = alloca i32, align 4
  %9 = alloca i32, align 4
  %10 = alloca i32, align 4
  %11 = alloca i32, align 4
  %12 = alloca i32, align 4
  store i32 0, i32* %1, align 4
  store i32 0, i32* %5, align 4
  %13 = call i32 (i8*, ...) @__isoc99_scanf(i8* getelementptr inbounds ([3 x i8], [3 x i8]* @.str, i64 0, i64 0), i32* %2)
  store i32 0, i32* %6, align 4
  br label %14

14:                                               ; preds = %26, %0
  %15 = load i32, i32* %6, align 4
  %16 = load i32, i32* %2, align 4
  %17 = icmp slt i32 %15, %16
  br i1 %17, label %18, label %29

18:                                               ; preds = %14
  %19 = load i32, i32* %6, align 4
  %20 = sext i32 %19 to i64
  %21 = getelementptr inbounds [25 x i32], [25 x i32]* %3, i64 0, i64 %20
  %22 = call i32 (i8*, ...) @__isoc99_scanf(i8* getelementptr inbounds ([3 x i8], [3 x i8]* @.str, i64 0, i64 0), i32* %21)
  %23 = load i32, i32* %6, align 4
  %24 = sext i32 %23 to i64
  %25 = getelementptr inbounds [25 x i32], [25 x i32]* %4, i64 0, i64 %24
  store i32 1, i32* %25, align 4
  br label %26

26:                                               ; preds = %18
  %27 = load i32, i32* %6, align 4
  %28 = add nsw i32 %27, 1
  store i32 %28, i32* %6, align 4
  br label %14

29:                                               ; preds = %14
  br label %30

30:                                               ; preds = %29, %138
  store i32 0, i32* %7, align 4
  store i32 0, i32* %8, align 4
  store i32 0, i32* %9, align 4
  store i32 0, i32* %10, align 4
  br label %31

31:                                               ; preds = %71, %30
  %32 = load i32, i32* %10, align 4
  %33 = load i32, i32* %2, align 4
  %34 = icmp slt i32 %32, %33
  br i1 %34, label %35, label %74

35:                                               ; preds = %31
  %36 = load i32, i32* %10, align 4
  %37 = sext i32 %36 to i64
  %38 = getelementptr inbounds [25 x i32], [25 x i32]* %4, i64 0, i64 %37
  %39 = load i32, i32* %38, align 4
  %40 = icmp eq i32 %39, 1
  br i1 %40, label %41, label %70

41:                                               ; preds = %35
  %42 = load i32, i32* %9, align 4
  %43 = add nsw i32 %42, 1
  store i32 %43, i32* %9, align 4
  %44 = load i32, i32* %8, align 4
  %45 = icmp eq i32 %44, 0
  br i1 %45, label %46, label %53

46:                                               ; preds = %41
  %47 = load i32, i32* %10, align 4
  %48 = sext i32 %47 to i64
  %49 = getelementptr inbounds [25 x i32], [25 x i32]* %3, i64 0, i64 %48
  %50 = load i32, i32* %49, align 4
  store i32 %50, i32* %7, align 4
  %51 = load i32, i32* %8, align 4
  %52 = add nsw i32 %51, 1
  store i32 %52, i32* %8, align 4
  br label %69

53:                                               ; preds = %41
  %54 = load i32, i32* %10, align 4
  %55 = sext i32 %54 to i64
  %56 = getelementptr inbounds [25 x i32], [25 x i32]* %3, i64 0, i64 %55
  %57 = load i32, i32* %56, align 4
  %58 = load i32, i32* %7, align 4
  %59 = icmp sle i32 %57, %58
  br i1 %59, label %60, label %67

60:                                               ; preds = %53
  %61 = load i32, i32* %10, align 4
  %62 = sext i32 %61 to i64
  %63 = getelementptr inbounds [25 x i32], [25 x i32]* %3, i64 0, i64 %62
  %64 = load i32, i32* %63, align 4
  store i32 %64, i32* %7, align 4
  %65 = load i32, i32* %8, align 4
  %66 = add nsw i32 %65, 1
  store i32 %66, i32* %8, align 4
  br label %68

67:                                               ; preds = %53
  br label %74

68:                                               ; preds = %60
  br label %69

69:                                               ; preds = %68, %46
  br label %70

70:                                               ; preds = %69, %35
  br label %71

71:                                               ; preds = %70
  %72 = load i32, i32* %10, align 4
  %73 = add nsw i32 %72, 1
  store i32 %73, i32* %10, align 4
  br label %31

74:                                               ; preds = %67, %31
  %75 = load i32, i32* %8, align 4
  %76 = load i32, i32* %9, align 4
  %77 = icmp eq i32 %75, %76
  br i1 %77, label %78, label %85

78:                                               ; preds = %74
  %79 = load i32, i32* %8, align 4
  %80 = load i32, i32* %5, align 4
  %81 = icmp sgt i32 %79, %80
  br i1 %81, label %82, label %84

82:                                               ; preds = %78
  %83 = load i32, i32* %8, align 4
  store i32 %83, i32* %5, align 4
  br label %84

84:                                               ; preds = %82, %78
  br label %85

85:                                               ; preds = %84, %74
  store i32 0, i32* %11, align 4
  br label %86

86:                                               ; preds = %98, %85
  %87 = load i32, i32* %11, align 4
  %88 = load i32, i32* %2, align 4
  %89 = icmp slt i32 %87, %88
  br i1 %89, label %90, label %101

90:                                               ; preds = %86
  %91 = load i32, i32* %11, align 4
  %92 = sext i32 %91 to i64
  %93 = getelementptr inbounds [25 x i32], [25 x i32]* %4, i64 0, i64 %92
  %94 = load i32, i32* %93, align 4
  %95 = icmp ne i32 %94, 0
  br i1 %95, label %96, label %97

96:                                               ; preds = %90
  br label %101

97:                                               ; preds = %90
  br label %98

98:                                               ; preds = %97
  %99 = load i32, i32* %11, align 4
  %100 = add nsw i32 %99, 1
  store i32 %100, i32* %11, align 4
  br label %86

101:                                              ; preds = %96, %86
  %102 = load i32, i32* %11, align 4
  %103 = load i32, i32* %2, align 4
  %104 = icmp eq i32 %102, %103
  br i1 %104, label %105, label %106

105:                                              ; preds = %101
  br label %139

106:                                              ; preds = %101
  %107 = load i32, i32* %2, align 4
  %108 = sub nsw i32 %107, 1
  %109 = sext i32 %108 to i64
  %110 = getelementptr inbounds [25 x i32], [25 x i32]* %4, i64 0, i64 %109
  %111 = load i32, i32* %110, align 4
  %112 = add nsw i32 %111, -1
  store i32 %112, i32* %110, align 4
  %113 = load i32, i32* %2, align 4
  %114 = sub nsw i32 %113, 1
  store i32 %114, i32* %12, align 4
  br label %115

115:                                              ; preds = %135, %106
  %116 = load i32, i32* %12, align 4
  %117 = icmp sgt i32 %116, 0
  br i1 %117, label %118, label %138

118:                                              ; preds = %115
  %119 = load i32, i32* %12, align 4
  %120 = sext i32 %119 to i64
  %121 = getelementptr inbounds [25 x i32], [25 x i32]* %4, i64 0, i64 %120
  %122 = load i32, i32* %121, align 4
  %123 = icmp eq i32 %122, -1
  br i1 %123, label %124, label %134

124:                                              ; preds = %118
  %125 = load i32, i32* %12, align 4
  %126 = sext i32 %125 to i64
  %127 = getelementptr inbounds [25 x i32], [25 x i32]* %4, i64 0, i64 %126
  store i32 1, i32* %127, align 4
  %128 = load i32, i32* %12, align 4
  %129 = sub nsw i32 %128, 1
  %130 = sext i32 %129 to i64
  %131 = getelementptr inbounds [25 x i32], [25 x i32]* %4, i64 0, i64 %130
  %132 = load i32, i32* %131, align 4
  %133 = add nsw i32 %132, -1
  store i32 %133, i32* %131, align 4
  br label %134

134:                                              ; preds = %124, %118
  br label %135

135:                                              ; preds = %134
  %136 = load i32, i32* %12, align 4
  %137 = add nsw i32 %136, -1
  store i32 %137, i32* %12, align 4
  br label %115

138:                                              ; preds = %115
  br label %30

139:                                              ; preds = %105
  %140 = load i32, i32* %5, align 4
  %141 = call i32 (i8*, ...) @printf(i8* getelementptr inbounds ([3 x i8], [3 x i8]* @.str, i64 0, i64 0), i32 %140)
  ret i32 0
}

declare dso_local i32 @__isoc99_scanf(i8*, ...) #1

declare dso_local i32 @printf(i8*, ...) #1


!llvm.module.flags = !{!0}
!llvm.ident = !{!1}

!0 = !{i32 1, !"wchar_size", i32 4}
!1 = !{!"clang version 10.0.0-4ubuntu1 "}
